target datalayout = "e-m:e-p270:32:32-p271:32:32-p272:64:64-i64:64-i128:128-f80:128-n8:16:32:64-S128"
target triple = "x86_64-pc-linux-gnu"

; Function Attrs: nounwind uwtable
define internal i32 @dsa_validate_private(ptr noundef %0) #0 {
  %2 = alloca i32, align 4
  %3 = alloca ptr, align 8
  %4 = alloca i32, align 4
  %5 = alloca ptr, align 8
  %6 = alloca i32, align 4
  store ptr %0, ptr %3, align 8, !tbaa !27
  call void @llvm.lifetime.start.p0(i64 4, ptr %4) #7
  store i32 0, ptr %4, align 4, !tbaa !7
  call void @llvm.lifetime.start.p0(i64 8, ptr %5) #7
  store ptr null, ptr %5, align 8, !tbaa !49
  %7 = load ptr, ptr %3, align 8, !tbaa !27
  call void @DSA_get0_key(ptr noundef %7, ptr noundef null, ptr noundef %5)
  %8 = load ptr, ptr %5, align 8, !tbaa !49
  %9 = icmp eq ptr %8, null
  br i1 %9, label %10, label %11

10:                                               ; preds = %1
  store i32 0, ptr %2, align 4
  store i32 1, ptr %6, align 4
  br label %15

11:                                               ; preds = %1
  %12 = load ptr, ptr %3, align 8, !tbaa !27
  %13 = load ptr, ptr %5, align 8, !tbaa !49
  %14 = call i32 @ossl_dsa_check_priv_key(ptr noundef %12, ptr noundef %13, ptr noundef %4)
  store i32 %14, ptr %2, align 4
  store i32 1, ptr %6, align 4
  br label %15

15:                                               ; preds = %11, %10
  call void @llvm.lifetime.end.p0(i64 8, ptr %5) #7
  call void @llvm.lifetime.end.p0(i64 4, ptr %4) #7
  %16 = load i32, ptr %2, align 4
  ret i32 %16
}

; Function Attrs: nounwind uwtable
define internal i32 @dsa_validate_public(ptr noundef %0) #0 {
  %2 = alloca i32, align 4
  %3 = alloca ptr, align 8
  %4 = alloca i32, align 4
  %5 = alloca ptr, align 8
  %6 = alloca i32, align 4
  store ptr %0, ptr %3, align 8, !tbaa !27
  call void @llvm.lifetime.start.p0(i64 4, ptr %4) #7
  store i32 0, ptr %4, align 4, !tbaa !7
  call void @llvm.lifetime.start.p0(i64 8, ptr %5) #7
  store ptr null, ptr %5, align 8, !tbaa !49
  %7 = load ptr, ptr %3, align 8, !tbaa !27
  call void @DSA_get0_key(ptr noundef %7, ptr noundef %5, ptr noundef null)
  %8 = load ptr, ptr %5, align 8, !tbaa !49
  %9 = icmp eq ptr %8, null
  br i1 %9, label %10, label %11

10:                                               ; preds = %1
  store i32 0, ptr %2, align 4
  store i32 1, ptr %6, align 4
  br label %15

11:                                               ; preds = %1
  %12 = load ptr, ptr %3, align 8, !tbaa !27
  %13 = load ptr, ptr %5, align 8, !tbaa !49
  %14 = call i32 @ossl_dsa_check_pub_key(ptr noundef %12, ptr noundef %13, ptr noundef %4)
  store i32 %14, ptr %2, align 4
  store i32 1, ptr %6, align 4
  br label %15

15:                                               ; preds = %11, %10
  call void @llvm.lifetime.end.p0(i64 8, ptr %5) #7
  call void @llvm.lifetime.end.p0(i64 4, ptr %4) #7
  %16 = load i32, ptr %2, align 4
  ret i32 %16
}

; Function Attrs: nounwind uwtable
define internal i32 @dsa_validate_domparams(ptr noundef %0, i32 noundef %1) #0 {
  %3 = alloca ptr, align 8
  %4 = alloca i32, align 4
  %5 = alloca i32, align 4
  store ptr %0, ptr %3, align 8, !tbaa !27
  store i32 %1, ptr %4, align 4, !tbaa !7
  call void @llvm.lifetime.start.p0(i64 4, ptr %5) #7
  store i32 0, ptr %5, align 4, !tbaa !7
  %6 = load ptr, ptr %3, align 8, !tbaa !27
  %7 = load i32, ptr %4, align 4, !tbaa !7
  %8 = call i32 @ossl_dsa_check_params(ptr noundef %6, i32 noundef %7, ptr noundef %5)
  call void @llvm.lifetime.end.p0(i64 4, ptr %5) #7
  ret i32 %8
}

; Function Attrs: nounwind uwtable
define internal i32 @dsa_validate(ptr noundef %0, i32 noundef %1, i32 noundef %2) #0 {
  %4 = alloca i32, align 4
  %5 = alloca ptr, align 8
  %6 = alloca i32, align 4
  %7 = alloca i32, align 4
  %8 = alloca ptr, align 8
  %9 = alloca i32, align 4
  %10 = alloca i32, align 4
  store ptr %0, ptr %5, align 8, !tbaa !3
  store i32 %1, ptr %6, align 4, !tbaa !7
  store i32 %2, ptr %7, align 4, !tbaa !7
  call void @llvm.lifetime.start.p0(i64 8, ptr %8) #7
  %11 = load ptr, ptr %5, align 8, !tbaa !3
  store ptr %11, ptr %8, align 8, !tbaa !27
  call void @llvm.lifetime.start.p0(i64 4, ptr %9) #7
  store i32 1, ptr %9, align 4, !tbaa !7
  %12 = call i32 @ossl_prov_is_running()
  %13 = icmp ne i32 %12, 0
  br i1 %13, label %15, label %14

14:                                               ; preds = %3
  store i32 0, ptr %4, align 4
  store i32 1, ptr %10, align 4
  br label %79

15:                                               ; preds = %3
  %16 = load i32, ptr %6, align 4, !tbaa !7
  %17 = and i32 %16, 7
  %18 = icmp eq i32 %17, 0
  br i1 %18, label %19, label %20

19:                                               ; preds = %15
  store i32 1, ptr %4, align 4
  store i32 1, ptr %10, align 4
  br label %79

20:                                               ; preds = %15
  %21 = load i32, ptr %6, align 4, !tbaa !7
  %22 = and i32 %21, 4
  %23 = icmp ne i32 %22, 0
  br i1 %23, label %24, label %35

24:                                               ; preds = %20
  %25 = load i32, ptr %9, align 4, !tbaa !7
  %26 = icmp ne i32 %25, 0
  br i1 %26, label %27, label %32

27:                                               ; preds = %24
  %28 = load ptr, ptr %8, align 8, !tbaa !27
  %29 = load i32, ptr %7, align 4, !tbaa !7
  %30 = call i32 @dsa_validate_domparams(ptr noundef %28, i32 noundef %29)
  %31 = icmp ne i32 %30, 0
  br label %32

32:                                               ; preds = %27, %24
  %33 = phi i1 [ false, %24 ], [ %31, %27 ]
  %34 = zext i1 %33 to i32
  store i32 %34, ptr %9, align 4, !tbaa !7
  br label %35

35:                                               ; preds = %32, %20
  %36 = load i32, ptr %6, align 4, !tbaa !7
  %37 = and i32 %36, 2
  %38 = icmp ne i32 %37, 0
  br i1 %38, label %39, label %49

39:                                               ; preds = %35
  %40 = load i32, ptr %9, align 4, !tbaa !7
  %41 = icmp ne i32 %40, 0
  br i1 %41, label %42, label %46

42:                                               ; preds = %39
  %43 = load ptr, ptr %8, align 8, !tbaa !27
  %44 = call i32 @dsa_validate_public(ptr noundef %43)
  %45 = icmp ne i32 %44, 0
  br label %46

46:                                               ; preds = %42, %39
  %47 = phi i1 [ false, %39 ], [ %45, %42 ]
  %48 = zext i1 %47 to i32
  store i32 %48, ptr %9, align 4, !tbaa !7
  br label %49

49:                                               ; preds = %46, %35
  %50 = load i32, ptr %6, align 4, !tbaa !7
  %51 = and i32 %50, 1
  %52 = icmp ne i32 %51, 0
  br i1 %52, label %53, label %63

53:                                               ; preds = %49
  %54 = load i32, ptr %9, align 4, !tbaa !7
  %55 = icmp ne i32 %54, 0
  br i1 %55, label %56, label %60

56:                                               ; preds = %53
  %57 = load ptr, ptr %8, align 8, !tbaa !27
  %58 = call i32 @dsa_validate_private(ptr noundef %57)
  %59 = icmp ne i32 %58, 0
  br label %60

60:                                               ; preds = %56, %53
  %61 = phi i1 [ false, %53 ], [ %59, %56 ]
  %62 = zext i1 %61 to i32
  store i32 %62, ptr %9, align 4, !tbaa !7
  br label %63

63:                                               ; preds = %60, %49
  %64 = load i32, ptr %6, align 4, !tbaa !7
  %65 = and i32 %64, 3
  %66 = icmp eq i32 %65, 3
  br i1 %66, label %67, label %77

67:                                               ; preds = %63
  %68 = load i32, ptr %9, align 4, !tbaa !7
  %69 = icmp ne i32 %68, 0
  br i1 %69, label %70, label %74

70:                                               ; preds = %67
  %71 = load ptr, ptr %8, align 8, !tbaa !27
  %72 = call i32 @ossl_dsa_check_pairwise(ptr noundef %71)
  %73 = icmp ne i32 %72, 0
  br label %74

74:                                               ; preds = %70, %67
  %75 = phi i1 [ false, %67 ], [ %73, %70 ]
  %76 = zext i1 %75 to i32
  store i32 %76, ptr %9, align 4, !tbaa !7
  br label %77

77:                                               ; preds = %74, %63
  %78 = load i32, ptr %9, align 4, !tbaa !7
  store i32 %78, ptr %4, align 4
  store i32 1, ptr %10, align 4
  br label %79

79:                                               ; preds = %77, %19, %14
  call void @llvm.lifetime.end.p0(i64 4, ptr %9) #7
  call void @llvm.lifetime.end.p0(i64 8, ptr %8) #7
  %80 = load i32, ptr %4, align 4
  ret i32 %80
}