; Function Attrs: nounwind uwtable
define internal range(i32 0, 2) i32 @dsa_validate(ptr noundef %0, i32 noundef %1, i32 noundef %2) #0 {
  %4 = alloca i32, align 4
  %5 = alloca ptr, align 8
  %6 = alloca i32, align 4
  %7 = alloca ptr, align 8
  %8 = alloca i32, align 4
  %9 = tail call i32 @ossl_prov_is_running() #7
  %.not = icmp eq i32 %9, 0
  br i1 %.not, label %.thread37, label %10

10:                                               ; preds = %3
  %11 = and i32 %1, 7
  %12 = icmp eq i32 %11, 0
  br i1 %12, label %.thread37, label %13

13:                                               ; preds = %10
  %14 = and i32 %1, 4
  %.not17 = icmp eq i32 %14, 0
  br i1 %.not17, label %.thread, label %15

15:                                               ; preds = %13
  call void @llvm.lifetime.start.p0(i64 4, ptr nonnull %8) #7
  store i32 0, ptr %8, align 4, !tbaa !46
  %16 = call i32 @ossl_dsa_check_params(ptr noundef %0, i32 noundef %2, ptr noundef nonnull %8) #7
  call void @llvm.lifetime.end.p0(i64 4, ptr nonnull %8) #7
  %17 = icmp ne i32 %16, 0
  %18 = and i32 %1, 2
  %.not18 = icmp ne i32 %18, 0
  %brmerge.not = select i1 %.not18, i1 %17, i1 false
  %not..not18 = xor i1 %.not18, true
  %narrow = select i1 %not..not18, i1 %17, i1 false
  %.mux = zext i1 %narrow to i32
  br i1 %brmerge.not, label %.thread27, label %26

.thread:                                          ; preds = %13
  %19 = and i32 %1, 2
  %.not1825 = icmp eq i32 %19, 0
  br i1 %.not1825, label %.thread30, label %.thread27

.thread27:                                        ; preds = %15, %.thread
  call void @llvm.lifetime.start.p0(i64 4, ptr nonnull %6) #7
  store i32 0, ptr %6, align 4, !tbaa !46
  call void @llvm.lifetime.start.p0(i64 8, ptr nonnull %7) #7
  store ptr null, ptr %7, align 8, !tbaa !45
  call void @DSA_get0_key(ptr noundef %0, ptr noundef nonnull %7, ptr noundef null) #7
  %20 = load ptr, ptr %7, align 8, !tbaa !45
  %21 = icmp eq ptr %20, null
  br i1 %21, label %dsa_validate_public.exit, label %22

22:                                               ; preds = %.thread27
  %23 = call i32 @ossl_dsa_check_pub_key(ptr noundef %0, ptr noundef nonnull %20, ptr noundef nonnull %6) #7
  %24 = icmp ne i32 %23, 0
  %25 = zext i1 %24 to i32
  br label %dsa_validate_public.exit

dsa_validate_public.exit:                         ; preds = %.thread27, %22
  %.0.i = phi i32 [ %25, %22 ], [ 0, %.thread27 ]
  call void @llvm.lifetime.end.p0(i64 8, ptr nonnull %7) #7
  call void @llvm.lifetime.end.p0(i64 4, ptr nonnull %6) #7
  br label %26

26:                                               ; preds = %15, %dsa_validate_public.exit
  %.1 = phi i32 [ %.mux, %15 ], [ %.0.i, %dsa_validate_public.exit ]
  %27 = and i32 %1, 1
  %.not20 = icmp eq i32 %27, 0
  br i1 %.not20, label %36, label %29

.thread30:                                        ; preds = %.thread
  %28 = and i32 %1, 1
  %.not2032 = icmp eq i32 %28, 0
  br i1 %.not2032, label %.thread37, label %.thread34

29:                                               ; preds = %26
  %.not21 = icmp eq i32 %.1, 0
  br i1 %.not21, label %.thread37, label %.thread34

.thread34:                                        ; preds = %.thread30, %29
  call void @llvm.lifetime.start.p0(i64 4, ptr nonnull %4) #7
  store i32 0, ptr %4, align 4, !tbaa !46
  call void @llvm.lifetime.start.p0(i64 8, ptr nonnull %5) #7
  store ptr null, ptr %5, align 8, !tbaa !45
  call void @DSA_get0_key(ptr noundef %0, ptr noundef null, ptr noundef nonnull %5) #7
  %30 = load ptr, ptr %5, align 8, !tbaa !45
  %31 = icmp eq ptr %30, null
  br i1 %31, label %dsa_validate_private.exit, label %32

32:                                               ; preds = %.thread34
  %33 = call i32 @ossl_dsa_check_priv_key(ptr noundef %0, ptr noundef nonnull %30, ptr noundef nonnull %4) #7
  %34 = icmp ne i32 %33, 0
  %35 = zext i1 %34 to i32
  br label %dsa_validate_private.exit

dsa_validate_private.exit:                        ; preds = %.thread34, %32
  %.0.i23 = phi i32 [ %35, %32 ], [ 0, %.thread34 ]
  call void @llvm.lifetime.end.p0(i64 8, ptr nonnull %5) #7
  call void @llvm.lifetime.end.p0(i64 4, ptr nonnull %4) #7
  br label %36

36:                                               ; preds = %dsa_validate_private.exit, %26
  %.2 = phi i32 [ %.1, %26 ], [ %.0.i23, %dsa_validate_private.exit ]
  %37 = and i32 %1, 3
  %38 = icmp eq i32 %37, 3
  br i1 %38, label %39, label %.thread37

39:                                               ; preds = %36
  %.not22 = icmp eq i32 %.2, 0
  br i1 %.not22, label %.thread37, label %.thread40

.thread40:                                        ; preds = %39
  %40 = call i32 @ossl_dsa_check_pairwise(ptr noundef %0) #7
  %41 = icmp ne i32 %40, 0
  %42 = zext i1 %41 to i32
  br label %.thread37

.thread37:                                        ; preds = %29, %.thread30, %36, %.thread40, %39, %10, %3
  %.016 = phi i32 [ 0, %3 ], [ 1, %10 ], [ %.2, %36 ], [ 0, %39 ], [ %42, %.thread40 ], [ 1, %.thread30 ], [ 0, %29 ]
  ret i32 %.016
}